target datalayout = "e-m:e-p270:32:32-p271:32:32-p272:64:64-i64:64-i128:128-f80:128-n8:16:32:64-S128"
target triple = "x86_64-pc-linux-gnu"

%"class.cv::MatExpr" = type { ptr, i32, %"class.cv::Mat", %"class.cv::Mat", %"class.cv::Mat", double, double, %"class.cv::Scalar_" }
%"class.cv::Mat" = type { i32, i32, i32, i32, ptr, ptr, ptr, ptr, ptr, ptr, %"struct.cv::MatSize", %"struct.cv::MatStep" }
%"struct.cv::MatSize" = type { ptr }
%"struct.cv::MatStep" = type { ptr, [2 x i64] }
%"class.cv::Scalar_" = type { %"class.cv::Vec" }
%"class.cv::Vec" = type { %"class.cv::Matx" }
%"class.cv::Matx" = type { [4 x double] }
%"class.cv::utils::trace::details::Region" = type <{ ptr, i32, [4 x i8] }>

; Function Attrs: mustprogress nounwind uwtable
define linkonce_odr hidden void @_ZN2cv4MatxIdLi4ELi1EEC2Ev(ptr noundef nonnull align 8 dereferenceable(32) %0) unnamed_addr #4 comdat align 2 {
  %2 = alloca ptr, align 8
  %3 = alloca i32, align 4
  store ptr %0, ptr %2, align 8
  %4 = load ptr, ptr %2, align 8
  store i32 0, ptr %3, align 4
  br label %5

5:                                                ; preds = %13, %1
  %6 = load i32, ptr %3, align 4
  %7 = icmp slt i32 %6, 4
  br i1 %7, label %8, label %16

8:                                                ; preds = %5
  %9 = getelementptr inbounds %"class.cv::Matx", ptr %4, i32 0, i32 0
  %10 = load i32, ptr %3, align 4
  %11 = sext i32 %10 to i64
  %12 = getelementptr inbounds [4 x double], ptr %9, i64 0, i64 %11
  store double 0.000000e+00, ptr %12, align 8
  br label %13

13:                                               ; preds = %8
  %14 = load i32, ptr %3, align 4
  %15 = add nsw i32 %14, 1
  store i32 %15, ptr %3, align 4
  br label %5, !llvm.loop !7

16:                                               ; preds = %5
  ret void
}

; Function Attrs: mustprogress uwtable
define linkonce_odr hidden void @_ZN2cv3VecIdLi4EEC2Ev(ptr noundef nonnull align 8 dereferenceable(32) %0) unnamed_addr #6 comdat align 2 {
  %2 = alloca ptr, align 8
  store ptr %0, ptr %2, align 8
  %3 = load ptr, ptr %2, align 8
  call void @_ZN2cv4MatxIdLi4ELi1EEC2Ev(ptr noundef nonnull align 8 dereferenceable(32) %3)
  ret void
}

; Function Attrs: mustprogress uwtable
define linkonce_odr hidden void @_ZN2cv7Scalar_IdEC2Edddd(ptr noundef nonnull align 8 dereferenceable(32) %0, double noundef %1, double noundef %2, double noundef %3, double noundef %4) unnamed_addr #6 comdat align 2 {
  %6 = alloca ptr, align 8
  %7 = alloca double, align 8
  %8 = alloca double, align 8
  %9 = alloca double, align 8
  %10 = alloca double, align 8
  store ptr %0, ptr %6, align 8
  store double %1, ptr %7, align 8
  store double %2, ptr %8, align 8
  store double %3, ptr %9, align 8
  store double %4, ptr %10, align 8
  %11 = load ptr, ptr %6, align 8
  call void @_ZN2cv3VecIdLi4EEC2Ev(ptr noundef nonnull align 8 dereferenceable(32) %11)
  %12 = load double, ptr %7, align 8
  %13 = getelementptr inbounds %"class.cv::Matx", ptr %11, i32 0, i32 0
  %14 = getelementptr inbounds [4 x double], ptr %13, i64 0, i64 0
  store double %12, ptr %14, align 8
  %15 = load double, ptr %8, align 8
  %16 = getelementptr inbounds %"class.cv::Matx", ptr %11, i32 0, i32 0
  %17 = getelementptr inbounds [4 x double], ptr %16, i64 0, i64 1
  store double %15, ptr %17, align 8
  %18 = load double, ptr %9, align 8
  %19 = getelementptr inbounds %"class.cv::Matx", ptr %11, i32 0, i32 0
  %20 = getelementptr inbounds [4 x double], ptr %19, i64 0, i64 2
  store double %18, ptr %20, align 8
  %21 = load double, ptr %10, align 8
  %22 = getelementptr inbounds %"class.cv::Matx", ptr %11, i32 0, i32 0
  %23 = getelementptr inbounds [4 x double], ptr %22, i64 0, i64 3
  store double %21, ptr %23, align 8
  ret void
}

; Function Attrs: mustprogress nounwind uwtable
define internal noundef double @_ZN2cvL13saturate_castIdEET_d(double noundef %0) #4 {
  %2 = alloca double, align 8
  store double %0, ptr %2, align 8
  %3 = load double, ptr %2, align 8
  ret double %3
}

; Function Attrs: mustprogress uwtable
define internal void @_ZN2cvmlIdEENS_7Scalar_IT_EERKS3_S2_(ptr dead_on_unwind noalias writable sret(%"class.cv::Scalar_") align 8 %0, ptr noundef nonnull align 8 dereferenceable(32) %1, double noundef %2) #6 {
  %4 = alloca ptr, align 8
  %5 = alloca ptr, align 8
  %6 = alloca double, align 8
  store ptr %0, ptr %4, align 8
  store ptr %1, ptr %5, align 8
  store double %2, ptr %6, align 8
  %7 = load ptr, ptr %5, align 8
  %8 = getelementptr inbounds %"class.cv::Matx", ptr %7, i32 0, i32 0
  %9 = getelementptr inbounds [4 x double], ptr %8, i64 0, i64 0
  %10 = load double, ptr %9, align 8
  %11 = load double, ptr %6, align 8
  %12 = fmul double %10, %11
  %13 = load ptr, ptr %5, align 8
  %14 = getelementptr inbounds %"class.cv::Matx", ptr %13, i32 0, i32 0
  %15 = getelementptr inbounds [4 x double], ptr %14, i64 0, i64 1
  %16 = load double, ptr %15, align 8
  %17 = load double, ptr %6, align 8
  %18 = fmul double %16, %17
  %19 = load ptr, ptr %5, align 8
  %20 = getelementptr inbounds %"class.cv::Matx", ptr %19, i32 0, i32 0
  %21 = getelementptr inbounds [4 x double], ptr %20, i64 0, i64 2
  %22 = load double, ptr %21, align 8
  %23 = load double, ptr %6, align 8
  %24 = fmul double %22, %23
  %25 = load ptr, ptr %5, align 8
  %26 = getelementptr inbounds %"class.cv::Matx", ptr %25, i32 0, i32 0
  %27 = getelementptr inbounds [4 x double], ptr %26, i64 0, i64 3
  %28 = load double, ptr %27, align 8
  %29 = load double, ptr %6, align 8
  %30 = fmul double %28, %29
  call void @_ZN2cv7Scalar_IdEC2Edddd(ptr noundef nonnull align 8 dereferenceable(32) %0, double noundef %12, double noundef %18, double noundef %24, double noundef %30)
  ret void
}

; Function Attrs: mustprogress uwtable
define internal void @_ZN2cvngIdEENS_7Scalar_IT_EERKS3_(ptr dead_on_unwind noalias writable sret(%"class.cv::Scalar_") align 8 %0, ptr noundef nonnull align 8 dereferenceable(32) %1) #6 {
  %3 = alloca ptr, align 8
  %4 = alloca ptr, align 8
  store ptr %0, ptr %3, align 8
  store ptr %1, ptr %4, align 8
  %5 = load ptr, ptr %4, align 8
  %6 = getelementptr inbounds %"class.cv::Matx", ptr %5, i32 0, i32 0
  %7 = getelementptr inbounds [4 x double], ptr %6, i64 0, i64 0
  %8 = load double, ptr %7, align 8
  %9 = fneg double %8
  %10 = call noundef double @_ZN2cvL13saturate_castIdEET_d(double noundef %9)
  %11 = load ptr, ptr %4, align 8
  %12 = getelementptr inbounds %"class.cv::Matx", ptr %11, i32 0, i32 0
  %13 = getelementptr inbounds [4 x double], ptr %12, i64 0, i64 1
  %14 = load double, ptr %13, align 8
  %15 = fneg double %14
  %16 = call noundef double @_ZN2cvL13saturate_castIdEET_d(double noundef %15)
  %17 = load ptr, ptr %4, align 8
  %18 = getelementptr inbounds %"class.cv::Matx", ptr %17, i32 0, i32 0
  %19 = getelementptr inbounds [4 x double], ptr %18, i64 0, i64 2
  %20 = load double, ptr %19, align 8
  %21 = fneg double %20
  %22 = call noundef double @_ZN2cvL13saturate_castIdEET_d(double noundef %21)
  %23 = load ptr, ptr %4, align 8
  %24 = getelementptr inbounds %"class.cv::Matx", ptr %23, i32 0, i32 0
  %25 = getelementptr inbounds [4 x double], ptr %24, i64 0, i64 3
  %26 = load double, ptr %25, align 8
  %27 = fneg double %26
  %28 = call noundef double @_ZN2cvL13saturate_castIdEET_d(double noundef %27)
  call void @_ZN2cv7Scalar_IdEC2Edddd(ptr noundef nonnull align 8 dereferenceable(32) %0, double noundef %10, double noundef %16, double noundef %22, double noundef %28)
  ret void
}

; Function Attrs: mustprogress uwtable
define hidden void @_ZNK2cv11MatOp_AddEx3absERKNS_7MatExprERS1_(ptr noundef nonnull align 8 dereferenceable(8) %0, ptr noundef nonnull align 8 dereferenceable(352) %1, ptr noundef nonnull align 8 dereferenceable(352) %2) unnamed_addr #6 align 2 personality ptr @__gxx_personality_v0 {
  %4 = alloca ptr, align 8
  %5 = alloca ptr, align 8
  %6 = alloca ptr, align 8
  %7 = alloca %"class.cv::utils::trace::details::Region", align 8
  %8 = alloca %"class.cv::Scalar_", align 8
  %9 = alloca %"class.cv::Scalar_", align 8
  %10 = alloca ptr, align 8
  %11 = alloca i32, align 4
  store ptr %0, ptr %4, align 8
  store ptr %1, ptr %5, align 8
  store ptr %2, ptr %6, align 8
  %12 = load ptr, ptr %4, align 8
  call void @_ZN2cv5utils5trace7details6RegionC1ERKNS3_21LocationStaticStorageE(ptr noundef nonnull align 8 dereferenceable(12) %7, ptr noundef nonnull align 8 dereferenceable(32) @_ZZNK2cv11MatOp_AddEx3absERKNS_7MatExprERS1_E26__cv_trace_location_fn1405)
  %13 = load ptr, ptr %5, align 8
  %14 = getelementptr inbounds %"class.cv::MatExpr", ptr %13, i32 0, i32 3
  %15 = getelementptr inbounds %"class.cv::Mat", ptr %14, i32 0, i32 4
  %16 = load ptr, ptr %15, align 8
  %17 = icmp ne ptr %16, null
  br i1 %17, label %18, label %23

18:                                               ; preds = %3
  %19 = load ptr, ptr %5, align 8
  %20 = getelementptr inbounds %"class.cv::MatExpr", ptr %19, i32 0, i32 6
  %21 = load double, ptr %20, align 8
  %22 = fcmp oeq double %21, 0.000000e+00
  br i1 %22, label %23, label %45

23:                                               ; preds = %18, %3
  %24 = load ptr, ptr %5, align 8
  %25 = getelementptr inbounds %"class.cv::MatExpr", ptr %24, i32 0, i32 5
  %26 = load double, ptr %25, align 8
  %27 = call double @llvm.fabs.f64(double %26)
  %28 = fcmp oeq double %27, 1.000000e+00
  br i1 %28, label %29, label %45

29:                                               ; preds = %23
  %30 = load ptr, ptr %6, align 8
  %31 = load ptr, ptr %5, align 8
  %32 = getelementptr inbounds %"class.cv::MatExpr", ptr %31, i32 0, i32 2
  %33 = load ptr, ptr %5, align 8
  %34 = getelementptr inbounds %"class.cv::MatExpr", ptr %33, i32 0, i32 7
  invoke void @_ZN2cvngIdEENS_7Scalar_IT_EERKS3_(ptr dead_on_unwind writable sret(%"class.cv::Scalar_") align 8 %9, ptr noundef nonnull align 8 dereferenceable(32) %34)
          to label %35 unwind label %41

35:                                               ; preds = %29
  %36 = load ptr, ptr %5, align 8
  %37 = getelementptr inbounds %"class.cv::MatExpr", ptr %36, i32 0, i32 5
  %38 = load double, ptr %37, align 8
  invoke void @_ZN2cvmlIdEENS_7Scalar_IT_EERKS3_S2_(ptr dead_on_unwind writable sret(%"class.cv::Scalar_") align 8 %8, ptr noundef nonnull align 8 dereferenceable(32) %9, double noundef %38)
          to label %39 unwind label %41

39:                                               ; preds = %35
  invoke void @_ZN2cv9MatOp_Bin8makeExprERNS_7MatExprEcRKNS_3MatERKNS_7Scalar_IdEE(ptr noundef nonnull align 8 dereferenceable(352) %30, i8 noundef signext 97, ptr noundef nonnull align 8 dereferenceable(96) %32, ptr noundef nonnull align 8 dereferenceable(32) %8)
          to label %40 unwind label %41

40:                                               ; preds = %39
  br label %81

41:                                               ; preds = %76, %69, %39, %35, %29
  %42 = landingpad { ptr, i32 }
          cleanup
  %43 = extractvalue { ptr, i32 } %42, 0
  store ptr %43, ptr %10, align 8
  %44 = extractvalue { ptr, i32 } %42, 1
  store i32 %44, ptr %11, align 4
  call void @_ZN2cv5utils5trace7details6RegionD2Ev(ptr noundef nonnull align 8 dereferenceable(12) %7) #3
  br label %82

45:                                               ; preds = %23, %18
  %46 = load ptr, ptr %5, align 8
  %47 = getelementptr inbounds %"class.cv::MatExpr", ptr %46, i32 0, i32 3
  %48 = getelementptr inbounds %"class.cv::Mat", ptr %47, i32 0, i32 4
  %49 = load ptr, ptr %48, align 8
  %50 = icmp ne ptr %49, null
  br i1 %50, label %51, label %76

51:                                               ; preds = %45
  %52 = load ptr, ptr %5, align 8
  %53 = getelementptr inbounds %"class.cv::MatExpr", ptr %52, i32 0, i32 5
  %54 = load double, ptr %53, align 8
  %55 = load ptr, ptr %5, align 8
  %56 = getelementptr inbounds %"class.cv::MatExpr", ptr %55, i32 0, i32 6
  %57 = load double, ptr %56, align 8
  %58 = fadd double %54, %57
  %59 = fcmp oeq double %58, 0.000000e+00
  br i1 %59, label %60, label %76

60:                                               ; preds = %51
  %61 = load ptr, ptr %5, align 8
  %62 = getelementptr inbounds %"class.cv::MatExpr", ptr %61, i32 0, i32 5
  %63 = load double, ptr %62, align 8
  %64 = load ptr, ptr %5, align 8
  %65 = getelementptr inbounds %"class.cv::MatExpr", ptr %64, i32 0, i32 6
  %66 = load double, ptr %65, align 8
  %67 = fmul double %63, %66
  %68 = fcmp oeq double %67, -1.000000e+00
  br i1 %68, label %69, label %76

69:                                               ; preds = %60
  %70 = load ptr, ptr %6, align 8
  %71 = load ptr, ptr %5, align 8
  %72 = getelementptr inbounds %"class.cv::MatExpr", ptr %71, i32 0, i32 2
  %73 = load ptr, ptr %5, align 8
  %74 = getelementptr inbounds %"class.cv::MatExpr", ptr %73, i32 0, i32 3
  invoke void @_ZN2cv9MatOp_Bin8makeExprERNS_7MatExprEcRKNS_3MatES5_d(ptr noundef nonnull align 8 dereferenceable(352) %70, i8 noundef signext 97, ptr noundef nonnull align 8 dereferenceable(96) %72, ptr noundef nonnull align 8 dereferenceable(96) %74, double noundef 1.000000e+00)
          to label %75 unwind label %41

75:                                               ; preds = %69
  br label %80

76:                                               ; preds = %60, %51, %45
  %77 = load ptr, ptr %5, align 8
  %78 = load ptr, ptr %6, align 8
  invoke void @_ZNK2cv5MatOp3absERKNS_7MatExprERS1_(ptr noundef nonnull align 8 dereferenceable(8) %12, ptr noundef nonnull align 8 dereferenceable(352) %77, ptr noundef nonnull align 8 dereferenceable(352) %78)
          to label %79 unwind label %41

79:                                               ; preds = %76
  br label %80

80:                                               ; preds = %79, %75
  br label %81

81:                                               ; preds = %80, %40
  call void @_ZN2cv5utils5trace7details6RegionD2Ev(ptr noundef nonnull align 8 dereferenceable(12) %7) #3
  ret void

82:                                               ; preds = %41
  %83 = load ptr, ptr %10, align 8
  %84 = load i32, ptr %11, align 4
  %85 = insertvalue { ptr, i32 } poison, ptr %83, 0
  %86 = insertvalue { ptr, i32 } %85, i32 %84, 1
  resume { ptr, i32 } %86
}