; Function Attrs: mustprogress uwtable
define hidden void @_ZNK2cv11MatOp_AddEx3absERKNS_7MatExprERS1_(ptr nocapture nonnull readnone align 8 %0, ptr noundef nonnull align 8 dereferenceable(352) %1, ptr noundef nonnull align 8 dereferenceable(352) %2) unnamed_addr #8 align 2 personality ptr @__gxx_personality_v0 {
  %4 = alloca %"class.cv::utils::trace::details::Region", align 8
  %5 = alloca %"class.cv::Scalar_", align 16
  call void @_ZN2cv5utils5trace7details6RegionC1ERKNS3_21LocationStaticStorageE(ptr noundef nonnull align 8 dereferenceable(12) %4, ptr noundef nonnull align 8 dereferenceable(32) @_ZZNK2cv11MatOp_AddEx3absERKNS_7MatExprERS1_E26__cv_trace_location_fn1405)
  %6 = getelementptr inbounds i8, ptr %1, i64 112
  %7 = getelementptr inbounds i8, ptr %1, i64 128
  %8 = load ptr, ptr %7, align 8
  %.not = icmp eq ptr %8, null
  %9 = getelementptr inbounds i8, ptr %1, i64 312
  %10 = load double, ptr %9, align 8
  %11 = fcmp oeq double %10, 0.000000e+00
  %or.cond = select i1 %.not, i1 true, i1 %11
  %12 = getelementptr inbounds i8, ptr %1, i64 304
  %13 = load double, ptr %12, align 8
  br i1 %or.cond, label %14, label %.thread

14:                                               ; preds = %3
  %15 = call double @llvm.fabs.f64(double %13)
  %16 = fcmp oeq double %15, 1.000000e+00
  br i1 %16, label %17, label %32

17:                                               ; preds = %14
  %18 = getelementptr inbounds i8, ptr %1, i64 16
  %19 = getelementptr inbounds i8, ptr %1, i64 320
  %20 = getelementptr inbounds i8, ptr %1, i64 336
  %21 = load <2 x double>, ptr %19, align 8, !noalias !32
  %22 = fneg <2 x double> %21
  %23 = insertelement <2 x double> poison, double %13, i64 0
  %24 = shufflevector <2 x double> %23, <2 x double> poison, <2 x i32> zeroinitializer
  %25 = fmul <2 x double> %24, %22
  store <2 x double> %25, ptr %5, align 16, !alias.scope !35
  %26 = getelementptr inbounds i8, ptr %5, i64 16
  %27 = load <2 x double>, ptr %20, align 8, !noalias !32
  %28 = fneg <2 x double> %27
  %29 = fmul <2 x double> %24, %28
  store <2 x double> %29, ptr %26, align 16, !alias.scope !35
  invoke void @_ZN2cv9MatOp_Bin8makeExprERNS_7MatExprEcRKNS_3MatERKNS_7Scalar_IdEE(ptr noundef nonnull align 8 dereferenceable(352) %2, i8 noundef signext 97, ptr noundef nonnull align 8 dereferenceable(96) %18, ptr noundef nonnull align 8 dereferenceable(32) %5)
          to label %40 unwind label %30

30:                                               ; preds = %39, %37, %17
  %31 = landingpad { ptr, i32 }
          cleanup
  call void @_ZN2cv5utils5trace7details6RegionD2Ev(ptr noundef nonnull align 8 dereferenceable(12) %4) #21
  resume { ptr, i32 } %31

32:                                               ; preds = %14
  br i1 %.not, label %39, label %.thread

.thread:                                          ; preds = %3, %32
  %33 = fadd double %10, %13
  %34 = fcmp oeq double %33, 0.000000e+00
  %35 = fmul double %10, %13
  %36 = fcmp oeq double %35, -1.000000e+00
  %or.cond23 = and i1 %34, %36
  br i1 %or.cond23, label %37, label %39

37:                                               ; preds = %.thread
  %38 = getelementptr inbounds i8, ptr %1, i64 16
  invoke void @_ZN2cv9MatOp_Bin8makeExprERNS_7MatExprEcRKNS_3MatES5_d(ptr noundef nonnull align 8 dereferenceable(352) %2, i8 noundef signext 97, ptr noundef nonnull align 8 dereferenceable(96) %38, ptr noundef nonnull align 8 dereferenceable(96) %6, double noundef 1.000000e+00)
          to label %40 unwind label %30

39:                                               ; preds = %.thread, %32
  invoke void @_ZNK2cv5MatOp3absERKNS_7MatExprERS1_(ptr nonnull align 8 poison, ptr noundef nonnull align 8 dereferenceable(352) %1, ptr noundef nonnull align 8 dereferenceable(352) %2)
          to label %40 unwind label %30

40:                                               ; preds = %37, %39, %17
  %41 = getelementptr inbounds i8, ptr %4, i64 8
  %42 = load i32, ptr %41, align 8
  %.not.i = icmp eq i32 %42, 0
  br i1 %.not.i, label %_ZN2cv5utils5trace7details6RegionD2Ev.exit, label %43

43:                                               ; preds = %40
  invoke void @_ZN2cv5utils5trace7details6Region7destroyEv(ptr noundef nonnull align 8 dereferenceable(12) %4)
          to label %_ZN2cv5utils5trace7details6RegionD2Ev.exit unwind label %44

44:                                               ; preds = %43
  %45 = landingpad { ptr, i32 }
          catch ptr null
  %46 = extractvalue { ptr, i32 } %45, 0
  call void @__clang_call_terminate(ptr %46) #20
  unreachable

_ZN2cv5utils5trace7details6RegionD2Ev.exit:       ; preds = %40, %43
  ret void
}